target datalayout = "e-m:e-p270:32:32-p271:32:32-p272:64:64-i64:64-i128:128-f80:128-n8:16:32:64-S128"
target triple = "x86_64-pc-linux-gnu"

@.str = private unnamed_addr constant [5 x i8] c" \0A\09\0D\00", align 1

; Function Attrs: nounwind uwtable
define ptr @av_get_token(ptr noundef %0, ptr noundef %1) #0 {
  %3 = alloca ptr, align 8
  %4 = alloca ptr, align 8
  %5 = alloca ptr, align 8
  %6 = alloca ptr, align 8
  %7 = alloca ptr, align 8
  %8 = alloca ptr, align 8
  %9 = alloca ptr, align 8
  %10 = alloca i32, align 4
  %11 = alloca i8, align 1
  store ptr %0, ptr %4, align 8, !tbaa !9
  store ptr %1, ptr %5, align 8, !tbaa !4
  call void @llvm.lifetime.start.p0(i64 8, ptr %6) #11
  %12 = load ptr, ptr %4, align 8, !tbaa !9
  %13 = load ptr, ptr %12, align 8, !tbaa !4
  %14 = call i64 @strlen(ptr noundef %13) #12
  %15 = add i64 %14, 1
  %16 = call noalias ptr @av_malloc(i64 noundef %15)
  store ptr %16, ptr %6, align 8, !tbaa !4
  call void @llvm.lifetime.start.p0(i64 8, ptr %7) #11
  %17 = load ptr, ptr %6, align 8, !tbaa !4
  store ptr %17, ptr %7, align 8, !tbaa !4
  call void @llvm.lifetime.start.p0(i64 8, ptr %8) #11
  %18 = load ptr, ptr %6, align 8, !tbaa !4
  store ptr %18, ptr %8, align 8, !tbaa !4
  call void @llvm.lifetime.start.p0(i64 8, ptr %9) #11
  %19 = load ptr, ptr %4, align 8, !tbaa !9
  %20 = load ptr, ptr %19, align 8, !tbaa !4
  store ptr %20, ptr %9, align 8, !tbaa !4
  %21 = load ptr, ptr %6, align 8, !tbaa !4
  %22 = icmp ne ptr %21, null
  br i1 %22, label %24, label %23

23:                                               ; preds = %2
  store ptr null, ptr %3, align 8
  store i32 1, ptr %10, align 4
  br label %117

24:                                               ; preds = %2
  %25 = load ptr, ptr %9, align 8, !tbaa !4
  %26 = call i64 @strspn(ptr noundef %25, ptr noundef @.str) #12
  %27 = load ptr, ptr %9, align 8, !tbaa !4
  %28 = getelementptr inbounds nuw i8, ptr %27, i64 %26
  store ptr %28, ptr %9, align 8, !tbaa !4
  br label %29

29:                                               ; preds = %98, %24
  %30 = load ptr, ptr %9, align 8, !tbaa !4
  %31 = load i8, ptr %30, align 1, !tbaa !12
  %32 = sext i8 %31 to i32
  %33 = icmp ne i32 %32, 0
  br i1 %33, label %34, label %40

34:                                               ; preds = %29
  %35 = load ptr, ptr %9, align 8, !tbaa !4
  %36 = load ptr, ptr %5, align 8, !tbaa !4
  %37 = call i64 @strspn(ptr noundef %35, ptr noundef %36) #12
  %38 = icmp ne i64 %37, 0
  %39 = xor i1 %38, true
  br label %40

40:                                               ; preds = %34, %29
  %41 = phi i1 [ false, %29 ], [ %39, %34 ]
  br i1 %41, label %42, label %99

42:                                               ; preds = %40
  call void @llvm.lifetime.start.p0(i64 1, ptr %11) #11
  %43 = load ptr, ptr %9, align 8, !tbaa !4
  %44 = getelementptr inbounds nuw i8, ptr %43, i32 1
  store ptr %44, ptr %9, align 8, !tbaa !4
  %45 = load i8, ptr %43, align 1, !tbaa !12
  store i8 %45, ptr %11, align 1, !tbaa !12
  %46 = load i8, ptr %11, align 1, !tbaa !12
  %47 = sext i8 %46 to i32
  %48 = icmp eq i32 %47, 92
  br i1 %48, label %49, label %61

49:                                               ; preds = %42
  %50 = load ptr, ptr %9, align 8, !tbaa !4
  %51 = load i8, ptr %50, align 1, !tbaa !12
  %52 = sext i8 %51 to i32
  %53 = icmp ne i32 %52, 0
  br i1 %53, label %54, label %61

54:                                               ; preds = %49
  %55 = load ptr, ptr %9, align 8, !tbaa !4
  %56 = getelementptr inbounds nuw i8, ptr %55, i32 1
  store ptr %56, ptr %9, align 8, !tbaa !4
  %57 = load i8, ptr %55, align 1, !tbaa !12
  %58 = load ptr, ptr %6, align 8, !tbaa !4
  %59 = getelementptr inbounds nuw i8, ptr %58, i32 1
  store ptr %59, ptr %6, align 8, !tbaa !4
  store i8 %57, ptr %58, align 1, !tbaa !12
  %60 = load ptr, ptr %6, align 8, !tbaa !4
  store ptr %60, ptr %8, align 8, !tbaa !4
  br label %98

61:                                               ; preds = %49, %42
  %62 = load i8, ptr %11, align 1, !tbaa !12
  %63 = sext i8 %62 to i32
  %64 = icmp eq i32 %63, 39
  br i1 %64, label %65, label %93

65:                                               ; preds = %61
  br label %66

66:                                               ; preds = %78, %65
  %67 = load ptr, ptr %9, align 8, !tbaa !4
  %68 = load i8, ptr %67, align 1, !tbaa !12
  %69 = sext i8 %68 to i32
  %70 = icmp ne i32 %69, 0
  br i1 %70, label %71, label %76

71:                                               ; preds = %66
  %72 = load ptr, ptr %9, align 8, !tbaa !4
  %73 = load i8, ptr %72, align 1, !tbaa !12
  %74 = sext i8 %73 to i32
  %75 = icmp ne i32 %74, 39
  br label %76

76:                                               ; preds = %71, %66
  %77 = phi i1 [ false, %66 ], [ %75, %71 ]
  br i1 %77, label %78, label %84

78:                                               ; preds = %76
  %79 = load ptr, ptr %9, align 8, !tbaa !4
  %80 = getelementptr inbounds nuw i8, ptr %79, i32 1
  store ptr %80, ptr %9, align 8, !tbaa !4
  %81 = load i8, ptr %79, align 1, !tbaa !12
  %82 = load ptr, ptr %6, align 8, !tbaa !4
  %83 = getelementptr inbounds nuw i8, ptr %82, i32 1
  store ptr %83, ptr %6, align 8, !tbaa !4
  store i8 %81, ptr %82, align 1, !tbaa !12
  br label %66, !llvm.loop !23

84:                                               ; preds = %76
  %85 = load ptr, ptr %9, align 8, !tbaa !4
  %86 = load i8, ptr %85, align 1, !tbaa !12
  %87 = icmp ne i8 %86, 0
  br i1 %87, label %88, label %92

88:                                               ; preds = %84
  %89 = load ptr, ptr %9, align 8, !tbaa !4
  %90 = getelementptr inbounds nuw i8, ptr %89, i32 1
  store ptr %90, ptr %9, align 8, !tbaa !4
  %91 = load ptr, ptr %6, align 8, !tbaa !4
  store ptr %91, ptr %8, align 8, !tbaa !4
  br label %92

92:                                               ; preds = %88, %84
  br label %97

93:                                               ; preds = %61
  %94 = load i8, ptr %11, align 1, !tbaa !12
  %95 = load ptr, ptr %6, align 8, !tbaa !4
  %96 = getelementptr inbounds nuw i8, ptr %95, i32 1
  store ptr %96, ptr %6, align 8, !tbaa !4
  store i8 %94, ptr %95, align 1, !tbaa !12
  br label %97

97:                                               ; preds = %93, %92
  br label %98

98:                                               ; preds = %97, %54
  call void @llvm.lifetime.end.p0(i64 1, ptr %11) #11
  br label %29, !llvm.loop !24

99:                                               ; preds = %40
  br label %100

100:                                              ; preds = %111, %99
  %101 = load ptr, ptr %6, align 8, !tbaa !4
  %102 = getelementptr inbounds i8, ptr %101, i32 -1
  store ptr %102, ptr %6, align 8, !tbaa !4
  store i8 0, ptr %101, align 1, !tbaa !12
  br label %103

103:                                              ; preds = %100
  %104 = load ptr, ptr %6, align 8, !tbaa !4
  %105 = load ptr, ptr %8, align 8, !tbaa !4
  %106 = icmp uge ptr %104, %105
  br i1 %106, label %107, label %111

107:                                              ; preds = %103
  %108 = load ptr, ptr %6, align 8, !tbaa !4
  %109 = call i64 @strspn(ptr noundef %108, ptr noundef @.str) #12
  %110 = icmp ne i64 %109, 0
  br label %111

111:                                              ; preds = %107, %103
  %112 = phi i1 [ false, %103 ], [ %110, %107 ]
  br i1 %112, label %100, label %113, !llvm.loop !25

113:                                              ; preds = %111
  %114 = load ptr, ptr %9, align 8, !tbaa !4
  %115 = load ptr, ptr %4, align 8, !tbaa !9
  store ptr %114, ptr %115, align 8, !tbaa !4
  %116 = load ptr, ptr %7, align 8, !tbaa !4
  store ptr %116, ptr %3, align 8
  store i32 1, ptr %10, align 4
  br label %117

117:                                              ; preds = %113, %23
  call void @llvm.lifetime.end.p0(i64 8, ptr %9) #11
  call void @llvm.lifetime.end.p0(i64 8, ptr %8) #11
  call void @llvm.lifetime.end.p0(i64 8, ptr %7) #11
  call void @llvm.lifetime.end.p0(i64 8, ptr %6) #11
  %118 = load ptr, ptr %3, align 8
  ret ptr %118
}