; Function Attrs: nounwind uwtable
define ptr @av_get_token(ptr noundef captures(none) %0, ptr noundef readonly captures(none) %1) local_unnamed_addr #9 {
  %3 = load ptr, ptr %0, align 8, !tbaa !9
  %4 = tail call i64 @strlen(ptr noundef nonnull dereferenceable(1) %3) #18
  %5 = add i64 %4, 1
  %6 = tail call noalias ptr @av_malloc(i64 noundef %5) #19
  %.not = icmp eq ptr %6, null
  br i1 %.not, label %33, label %7

7:                                                ; preds = %2
  %8 = load ptr, ptr %0, align 8, !tbaa !9
  %9 = tail call i64 @strspn(ptr noundef %8, ptr noundef nonnull @.str) #18
  %10 = getelementptr inbounds nuw i8, ptr %8, i64 %9
  %11 = load i8, ptr %10, align 1, !tbaa !4
  %.not4756 = icmp eq i8 %11, 0
  br i1 %.not4756, label %.critedge, label %.lr.ph

.lr.ph:                                           ; preds = %7, %27
  %12 = phi i8 [ %28, %27 ], [ %11, %7 ]
  %.03759 = phi ptr [ %.1, %27 ], [ %10, %7 ]
  %.03858 = phi ptr [ %.139, %27 ], [ %6, %7 ]
  %.04057 = phi ptr [ %.141, %27 ], [ %6, %7 ]
  %13 = tail call i64 @strspn(ptr noundef nonnull %.03759, ptr noundef %1) #18
  %.not48 = icmp eq i64 %13, 0
  br i1 %.not48, label %14, label %.critedge

14:                                               ; preds = %.lr.ph
  %15 = getelementptr inbounds nuw i8, ptr %.03759, i64 1
  switch i8 %12, label %25 [
    i8 92, label %16
    i8 39, label %.preheader
  ]

16:                                               ; preds = %14
  %17 = load i8, ptr %15, align 1, !tbaa !4
  %.not51 = icmp eq i8 %17, 0
  br i1 %.not51, label %25, label %18

18:                                               ; preds = %16
  %19 = getelementptr inbounds nuw i8, ptr %.03759, i64 2
  %20 = getelementptr inbounds nuw i8, ptr %.04057, i64 1
  store i8 %17, ptr %.04057, align 1, !tbaa !4
  br label %27

.preheader:                                       ; preds = %14, %22
  %.242 = phi ptr [ %24, %22 ], [ %.04057, %14 ]
  %.2 = phi ptr [ %23, %22 ], [ %15, %14 ]
  %21 = load i8, ptr %.2, align 1, !tbaa !4
  switch i8 %21, label %22 [
    i8 0, label %.critedge2
    i8 39, label %.critedge2
  ]

22:                                               ; preds = %.preheader
  %23 = getelementptr inbounds nuw i8, ptr %.2, i64 1
  %24 = getelementptr inbounds nuw i8, ptr %.242, i64 1
  store i8 %21, ptr %.242, align 1, !tbaa !4
  br label %.preheader, !llvm.loop !16

.critedge2:                                       ; preds = %.preheader, %.preheader
  %.not54 = icmp ne i8 %21, 0
  %spec.select = select i1 %.not54, ptr %.242, ptr %.03858
  %spec.select55.idx = zext i1 %.not54 to i64
  %spec.select55 = getelementptr inbounds nuw i8, ptr %.2, i64 %spec.select55.idx
  br label %27

25:                                               ; preds = %16, %14
  %26 = getelementptr inbounds nuw i8, ptr %.04057, i64 1
  store i8 %12, ptr %.04057, align 1, !tbaa !4
  br label %27

27:                                               ; preds = %.critedge2, %25, %18
  %.141 = phi ptr [ %20, %18 ], [ %26, %25 ], [ %.242, %.critedge2 ]
  %.139 = phi ptr [ %20, %18 ], [ %.03858, %25 ], [ %spec.select, %.critedge2 ]
  %.1 = phi ptr [ %19, %18 ], [ %15, %25 ], [ %spec.select55, %.critedge2 ]
  %28 = load i8, ptr %.1, align 1, !tbaa !4
  %.not47 = icmp eq i8 %28, 0
  br i1 %.not47, label %.critedge, label %.lr.ph, !llvm.loop !17

.critedge:                                        ; preds = %.lr.ph, %27, %7
  %.040.lcssa = phi ptr [ %6, %7 ], [ %.141, %27 ], [ %.04057, %.lr.ph ]
  %.038.lcssa = phi ptr [ %6, %7 ], [ %.139, %27 ], [ %.03858, %.lr.ph ]
  %.037.lcssa = phi ptr [ %10, %7 ], [ %.1, %27 ], [ %.03759, %.lr.ph ]
  br label %29

29:                                               ; preds = %31, %.critedge
  %.3 = phi ptr [ %.040.lcssa, %.critedge ], [ %30, %31 ]
  %30 = getelementptr inbounds i8, ptr %.3, i64 -1
  store i8 0, ptr %.3, align 1, !tbaa !4
  %.not49 = icmp ult ptr %30, %.038.lcssa
  br i1 %.not49, label %.critedge4, label %31

31:                                               ; preds = %29
  %32 = tail call i64 @strspn(ptr noundef nonnull %30, ptr noundef nonnull @.str) #18
  %.not50 = icmp eq i64 %32, 0
  br i1 %.not50, label %.critedge4, label %29, !llvm.loop !18

.critedge4:                                       ; preds = %29, %31
  store ptr %.037.lcssa, ptr %0, align 8, !tbaa !9
  br label %33

33:                                               ; preds = %2, %.critedge4
  ret ptr %6
}